target datalayout = "e-m:e-p270:32:32-p271:32:32-p272:64:64-i64:64-i128:128-f80:128-n8:16:32:64-S128"
target triple = "x86_64-pc-linux-gnu"

%struct.jpeg_compress_struct = type { ptr, ptr, ptr, ptr, i32, i32, ptr, i32, i32, i32, i32, double, i32, i32, i32, ptr, [4 x ptr], [4 x ptr], [4 x ptr], [16 x i8], [16 x i8], [16 x i8], i32, ptr, i32, i32, i32, i32, i32, i32, i32, i32, i32, i8, i8, i8, i16, i16, i32, i32, i32, i32, i32, i32, i32, [4 x ptr], i32, i32, i32, [10 x i32], i32, i32, i32, i32, ptr, ptr, ptr, ptr, ptr, ptr, ptr, ptr, ptr, ptr, i32 }
%struct.jpeg_error_mgr = type { ptr, ptr, ptr, ptr, ptr, i32, %union.anon, i32, i64, ptr, i32, ptr, i32, i32 }
%union.anon = type { [8 x i32], [48 x i8] }

; Function Attrs: nounwind uwtable
define internal i32 @pbm_getc(ptr noundef %0) #0 {
  %2 = alloca ptr, align 8
  %3 = alloca i32, align 4
  store ptr %0, ptr %2, align 8, !tbaa !70
  call void @llvm.lifetime.start.p0(i64 4, ptr %3) #6
  %4 = load ptr, ptr %2, align 8, !tbaa !70
  %5 = call i32 @getc(ptr noundef %4)
  store i32 %5, ptr %3, align 4, !tbaa !49
  %6 = load i32, ptr %3, align 4, !tbaa !49
  %7 = icmp eq i32 %6, 35
  br i1 %7, label %8, label %21

8:                                                ; preds = %1
  br label %9

9:                                                ; preds = %18, %8
  %10 = load ptr, ptr %2, align 8, !tbaa !70
  %11 = call i32 @getc(ptr noundef %10)
  store i32 %11, ptr %3, align 4, !tbaa !49
  br label %12

12:                                               ; preds = %9
  %13 = load i32, ptr %3, align 4, !tbaa !49
  %14 = icmp ne i32 %13, 10
  br i1 %14, label %15, label %18

15:                                               ; preds = %12
  %16 = load i32, ptr %3, align 4, !tbaa !49
  %17 = icmp ne i32 %16, -1
  br label %18

18:                                               ; preds = %15, %12
  %19 = phi i1 [ false, %12 ], [ %17, %15 ]
  br i1 %19, label %9, label %20, !llvm.loop !105

20:                                               ; preds = %18
  br label %21

21:                                               ; preds = %20, %1
  %22 = load i32, ptr %3, align 4, !tbaa !49
  call void @llvm.lifetime.end.p0(i64 4, ptr %3) #6
  ret i32 %22
}

; Function Attrs: nounwind uwtable
define internal i32 @read_pbm_integer(ptr noundef %0, ptr noundef %1, i32 noundef %2) #0 {
  %4 = alloca ptr, align 8
  %5 = alloca ptr, align 8
  %6 = alloca i32, align 4
  %7 = alloca i32, align 4
  %8 = alloca i32, align 4
  store ptr %0, ptr %4, align 8, !tbaa !4
  store ptr %1, ptr %5, align 8, !tbaa !70
  store i32 %2, ptr %6, align 4, !tbaa !49
  call void @llvm.lifetime.start.p0(i64 4, ptr %7) #6
  call void @llvm.lifetime.start.p0(i64 4, ptr %8) #6
  br label %9

9:                                                ; preds = %38, %3
  %10 = load ptr, ptr %5, align 8, !tbaa !70
  %11 = call i32 @pbm_getc(ptr noundef %10)
  store i32 %11, ptr %7, align 4, !tbaa !49
  %12 = load i32, ptr %7, align 4, !tbaa !49
  %13 = icmp eq i32 %12, -1
  br i1 %13, label %14, label %25

14:                                               ; preds = %9
  %15 = load ptr, ptr %4, align 8, !tbaa !4
  %16 = getelementptr inbounds nuw %struct.jpeg_compress_struct, ptr %15, i32 0, i32 0
  %17 = load ptr, ptr %16, align 8, !tbaa !27
  %18 = getelementptr inbounds nuw %struct.jpeg_error_mgr, ptr %17, i32 0, i32 5
  store i32 43, ptr %18, align 8, !tbaa !28
  %19 = load ptr, ptr %4, align 8, !tbaa !4
  %20 = getelementptr inbounds nuw %struct.jpeg_compress_struct, ptr %19, i32 0, i32 0
  %21 = load ptr, ptr %20, align 8, !tbaa !27
  %22 = getelementptr inbounds nuw %struct.jpeg_error_mgr, ptr %21, i32 0, i32 0
  %23 = load ptr, ptr %22, align 8, !tbaa !33
  %24 = load ptr, ptr %4, align 8, !tbaa !4
  call void %23(ptr noundef %24)
  br label %25

25:                                               ; preds = %14, %9
  br label %26

26:                                               ; preds = %25
  %27 = load i32, ptr %7, align 4, !tbaa !49
  %28 = icmp eq i32 %27, 32
  br i1 %28, label %38, label %29

29:                                               ; preds = %26
  %30 = load i32, ptr %7, align 4, !tbaa !49
  %31 = icmp eq i32 %30, 9
  br i1 %31, label %38, label %32

32:                                               ; preds = %29
  %33 = load i32, ptr %7, align 4, !tbaa !49
  %34 = icmp eq i32 %33, 10
  br i1 %34, label %38, label %35

35:                                               ; preds = %32
  %36 = load i32, ptr %7, align 4, !tbaa !49
  %37 = icmp eq i32 %36, 13
  br label %38

38:                                               ; preds = %35, %32, %29, %26
  %39 = phi i1 [ true, %32 ], [ true, %29 ], [ true, %26 ], [ %37, %35 ]
  br i1 %39, label %9, label %40, !llvm.loop !71

40:                                               ; preds = %38
  %41 = load i32, ptr %7, align 4, !tbaa !49
  %42 = icmp slt i32 %41, 48
  br i1 %42, label %46, label %43

43:                                               ; preds = %40
  %44 = load i32, ptr %7, align 4, !tbaa !49
  %45 = icmp sgt i32 %44, 57
  br i1 %45, label %46, label %57

46:                                               ; preds = %43, %40
  %47 = load ptr, ptr %4, align 8, !tbaa !4
  %48 = getelementptr inbounds nuw %struct.jpeg_compress_struct, ptr %47, i32 0, i32 0
  %49 = load ptr, ptr %48, align 8, !tbaa !27
  %50 = getelementptr inbounds nuw %struct.jpeg_error_mgr, ptr %49, i32 0, i32 5
  store i32 1029, ptr %50, align 8, !tbaa !28
  %51 = load ptr, ptr %4, align 8, !tbaa !4
  %52 = getelementptr inbounds nuw %struct.jpeg_compress_struct, ptr %51, i32 0, i32 0
  %53 = load ptr, ptr %52, align 8, !tbaa !27
  %54 = getelementptr inbounds nuw %struct.jpeg_error_mgr, ptr %53, i32 0, i32 0
  %55 = load ptr, ptr %54, align 8, !tbaa !33
  %56 = load ptr, ptr %4, align 8, !tbaa !4
  call void %55(ptr noundef %56)
  br label %57

57:                                               ; preds = %46, %43
  %58 = load i32, ptr %7, align 4, !tbaa !49
  %59 = sub nsw i32 %58, 48
  store i32 %59, ptr %8, align 4, !tbaa !49
  br label %60

60:                                               ; preds = %90, %57
  %61 = load ptr, ptr %5, align 8, !tbaa !70
  %62 = call i32 @pbm_getc(ptr noundef %61)
  store i32 %62, ptr %7, align 4, !tbaa !49
  %63 = icmp sge i32 %62, 48
  br i1 %63, label %64, label %67

64:                                               ; preds = %60
  %65 = load i32, ptr %7, align 4, !tbaa !49
  %66 = icmp sle i32 %65, 57
  br label %67

67:                                               ; preds = %64, %60
  %68 = phi i1 [ false, %60 ], [ %66, %64 ]
  br i1 %68, label %69, label %91

69:                                               ; preds = %67
  %70 = load i32, ptr %8, align 4, !tbaa !49
  %71 = mul i32 %70, 10
  store i32 %71, ptr %8, align 4, !tbaa !49
  %72 = load i32, ptr %7, align 4, !tbaa !49
  %73 = sub nsw i32 %72, 48
  %74 = load i32, ptr %8, align 4, !tbaa !49
  %75 = add i32 %74, %73
  store i32 %75, ptr %8, align 4, !tbaa !49
  %76 = load i32, ptr %8, align 4, !tbaa !49
  %77 = load i32, ptr %6, align 4, !tbaa !49
  %78 = icmp ugt i32 %76, %77
  br i1 %78, label %79, label %90

79:                                               ; preds = %69
  %80 = load ptr, ptr %4, align 8, !tbaa !4
  %81 = getelementptr inbounds nuw %struct.jpeg_compress_struct, ptr %80, i32 0, i32 0
  %82 = load ptr, ptr %81, align 8, !tbaa !27
  %83 = getelementptr inbounds nuw %struct.jpeg_error_mgr, ptr %82, i32 0, i32 5
  store i32 1031, ptr %83, align 8, !tbaa !28
  %84 = load ptr, ptr %4, align 8, !tbaa !4
  %85 = getelementptr inbounds nuw %struct.jpeg_compress_struct, ptr %84, i32 0, i32 0
  %86 = load ptr, ptr %85, align 8, !tbaa !27
  %87 = getelementptr inbounds nuw %struct.jpeg_error_mgr, ptr %86, i32 0, i32 0
  %88 = load ptr, ptr %87, align 8, !tbaa !33
  %89 = load ptr, ptr %4, align 8, !tbaa !4
  call void %88(ptr noundef %89)
  br label %90

90:                                               ; preds = %79, %69
  br label %60, !llvm.loop !72

91:                                               ; preds = %67
  %92 = load i32, ptr %8, align 4, !tbaa !49
  call void @llvm.lifetime.end.p0(i64 4, ptr %8) #6
  call void @llvm.lifetime.end.p0(i64 4, ptr %7) #6
  ret i32 %92
}