; Function Attrs: nounwind uwtable
define internal fastcc i32 @read_pbm_integer(ptr noundef %0, ptr noundef captures(none) %1, i32 noundef %2) unnamed_addr #0 {
  br label %.critedge

.critedge:                                        ; preds = %.critedge.backedge, %3
  %4 = tail call i32 @getc(ptr noundef %1)
  %5 = icmp eq i32 %4, 35
  br i1 %5, label %.preheader.i, label %pbm_getc.exit

.preheader.i:                                     ; preds = %.critedge, %.preheader.i
  %6 = tail call i32 @getc(ptr noundef %1)
  switch i32 %6, label %.preheader.i [
    i32 -1, label %pbm_getc.exit
    i32 10, label %pbm_getc.exit
  ]

pbm_getc.exit:                                    ; preds = %.preheader.i, %.preheader.i, %.critedge
  %.0.i = phi i32 [ %4, %.critedge ], [ %6, %.preheader.i ], [ %6, %.preheader.i ]
  switch i32 %.0.i, label %10 [
    i32 -1, label %.thread
    i32 32, label %.critedge.backedge
    i32 13, label %.critedge.backedge
    i32 10, label %.critedge.backedge
    i32 9, label %.critedge.backedge
  ]

.critedge.backedge:                               ; preds = %pbm_getc.exit, %pbm_getc.exit, %pbm_getc.exit, %pbm_getc.exit
  br label %.critedge

.thread:                                          ; preds = %pbm_getc.exit
  %7 = load ptr, ptr %0, align 8, !tbaa !25
  %8 = getelementptr inbounds nuw i8, ptr %7, i64 40
  store i32 43, ptr %8, align 8, !tbaa !26
  %9 = load ptr, ptr %7, align 8, !tbaa !31
  tail call void %9(ptr noundef nonnull %0) #6
  br label %12

10:                                               ; preds = %pbm_getc.exit
  %11 = add i32 %.0.i, -58
  %or.cond5 = icmp ult i32 %11, -10
  br i1 %or.cond5, label %12, label %16

12:                                               ; preds = %.thread, %10
  %13 = load ptr, ptr %0, align 8, !tbaa !25
  %14 = getelementptr inbounds nuw i8, ptr %13, i64 40
  store i32 1029, ptr %14, align 8, !tbaa !26
  %15 = load ptr, ptr %13, align 8, !tbaa !31
  tail call void %15(ptr noundef nonnull %0) #6
  br label %16

16:                                               ; preds = %10, %12
  %17 = add nsw i32 %.0.i, -48
  br label %18

18:                                               ; preds = %.backedge, %16
  %.0 = phi i32 [ %17, %16 ], [ %26, %.backedge ]
  %19 = tail call i32 @getc(ptr noundef %1)
  %20 = icmp eq i32 %19, 35
  br i1 %20, label %.preheader.i35, label %pbm_getc.exit36

.preheader.i35:                                   ; preds = %18, %.preheader.i35
  %21 = tail call i32 @getc(ptr noundef %1)
  switch i32 %21, label %.preheader.i35 [
    i32 -1, label %pbm_getc.exit36
    i32 10, label %pbm_getc.exit36
  ]

pbm_getc.exit36:                                  ; preds = %.preheader.i35, %.preheader.i35, %18
  %.0.i34 = phi i32 [ %19, %18 ], [ %21, %.preheader.i35 ], [ %21, %.preheader.i35 ]
  %22 = add i32 %.0.i34, -48
  %23 = icmp ult i32 %22, 10
  br i1 %23, label %24, label %32

24:                                               ; preds = %pbm_getc.exit36
  %25 = mul i32 %.0, 10
  %26 = add i32 %22, %25
  %27 = icmp ugt i32 %26, %2
  br i1 %27, label %28, label %.backedge

28:                                               ; preds = %24
  %29 = load ptr, ptr %0, align 8, !tbaa !25
  %30 = getelementptr inbounds nuw i8, ptr %29, i64 40
  store i32 1031, ptr %30, align 8, !tbaa !26
  %31 = load ptr, ptr %29, align 8, !tbaa !31
  tail call void %31(ptr noundef nonnull %0) #6
  br label %.backedge

.backedge:                                        ; preds = %28, %24
  br label %18, !llvm.loop !62

32:                                               ; preds = %pbm_getc.exit36
  ret i32 %.0
}